; ModuleID = 'probe2.30d80991ac0c070a-cgu.0'
source_filename = "probe2.30d80991ac0c070a-cgu.0"
target datalayout = "e-m:e-i8:8:32-i16:16:32-i64:64-i128:128-n32:64-S128"
target triple = "aarch64-unknown-linux-gnu"

; core::f64::<impl f64>::to_int_unchecked
; Function Attrs: inlinehint uwtable
define i32 @"_ZN4core3f6421_$LT$impl$u20$f64$GT$16to_int_unchecked17h849506b0896e028fE"(double %self) unnamed_addr #0 {
start:
; call <f64 as core::convert::num::FloatToInt<i32>>::to_int_unchecked
  %_0 = call i32 @"_ZN65_$LT$f64$u20$as$u20$core..convert..num..FloatToInt$LT$i32$GT$$GT$16to_int_unchecked17h3591241b84de69d5E"(double %self)
  ret i32 %_0
}

; <f64 as core::convert::num::FloatToInt<i32>>::to_int_unchecked
; Function Attrs: inlinehint uwtable
define internal i32 @"_ZN65_$LT$f64$u20$as$u20$core..convert..num..FloatToInt$LT$i32$GT$$GT$16to_int_unchecked17h3591241b84de69d5E"(double %self) unnamed_addr #0 {
start:
  %0 = alloca [4 x i8], align 4
  %1 = fptosi double %self to i32
  store i32 %1, ptr %0, align 4
  %_0 = load i32, ptr %0, align 4
  ret i32 %_0
}

; probe2::probe
; Function Attrs: uwtable
define void @_ZN6probe25probe17h29f2c502e7af3996E() unnamed_addr #1 {
start:
; call core::f64::<impl f64>::to_int_unchecked
  %_1 = call i32 @"_ZN4core3f6421_$LT$impl$u20$f64$GT$16to_int_unchecked17h849506b0896e028fE"(double 1.000000e+00)
  ret void
}

attributes #0 = { inlinehint uwtable "probe-stack"="inline-asm" "target-cpu"="generic" "target-features"="+v8a,+outline-atomics" }
attributes #1 = { uwtable "probe-stack"="inline-asm" "target-cpu"="generic" "target-features"="+v8a,+outline-atomics" }

!llvm.module.flags = !{!0}
!llvm.ident = !{!1}

!0 = !{i32 8, !"PIC Level", i32 2}
!1 = !{!"rustc version 1.80.0-nightly (d2d24e395 2024-05-03)"}
